; Function Attrs: nounwind uwtable
define ptr @l_Lake_Toml_instAndThenParserFn__lake(ptr noundef %0, ptr noundef %1, ptr noundef %2, ptr noundef %3) local_unnamed_addr #1 {
  %5 = ptrtoint ptr %2 to i64
  %6 = and i64 %5, 1
  %.not = icmp eq i64 %6, 0
  br i1 %.not, label %7, label %lean_inc.exit18

7:                                                ; preds = %4
  %.val.i = load i32, ptr %2, align 4, !tbaa !4
  %8 = icmp sgt i32 %.val.i, 0
  br i1 %8, label %9, label %11, !prof !9

9:                                                ; preds = %7
  %10 = add nuw i32 %.val.i, 1
  store i32 %10, ptr %2, align 4, !tbaa !4
  br label %lean_inc.exit18

11:                                               ; preds = %7
  %.not.i21 = icmp eq i32 %.val.i, 0
  br i1 %.not.i21, label %lean_inc.exit18, label %12

12:                                               ; preds = %11
  tail call void @lean_inc_ref_cold(ptr noundef nonnull %2) #4
  br label %lean_inc.exit18

lean_inc.exit18:                                  ; preds = %12, %11, %9, %4
  %13 = tail call ptr @lean_apply_2(ptr noundef %0, ptr noundef %2, ptr noundef %3) #4
  %14 = getelementptr inbounds nuw i8, ptr %13, i64 40
  %15 = load ptr, ptr %14, align 8, !tbaa !10
  %16 = ptrtoint ptr %15 to i64
  %17 = and i64 %16, 1
  %.not25 = icmp eq i64 %17, 0
  br i1 %.not25, label %18, label %lean_inc.exit

18:                                               ; preds = %lean_inc.exit18
  %.val.i22 = load i32, ptr %15, align 4, !tbaa !4
  %19 = icmp sgt i32 %.val.i22, 0
  br i1 %19, label %20, label %22, !prof !9

20:                                               ; preds = %18
  %21 = add nuw i32 %.val.i22, 1
  store i32 %21, ptr %15, align 4, !tbaa !4
  br label %lean_inc.exit

22:                                               ; preds = %18
  %.not.i23 = icmp eq i32 %.val.i22, 0
  br i1 %.not.i23, label %lean_inc.exit, label %23

23:                                               ; preds = %22
  tail call void @lean_inc_ref_cold(ptr noundef nonnull %15) #4
  br label %lean_inc.exit

lean_inc.exit:                                    ; preds = %23, %22, %20, %lean_inc.exit18
  %24 = tail call zeroext i8 @l_Option_beqOption____x40_Init_Data_Option_Basic___hyg_160____at_Lean_Parser_ParserState_hasError___spec__1(ptr noundef %15, ptr noundef nonnull inttoptr (i64 1 to ptr)) #4
  %25 = icmp eq i8 %24, 0
  br i1 %25, label %26, label %43

26:                                               ; preds = %lean_inc.exit
  br i1 %.not, label %27, label %lean_dec.exit17

27:                                               ; preds = %26
  %28 = load i32, ptr %2, align 4, !tbaa !4
  %29 = icmp sgt i32 %28, 1
  br i1 %29, label %30, label %32, !prof !9

30:                                               ; preds = %27
  %31 = add nsw i32 %28, -1
  store i32 %31, ptr %2, align 4, !tbaa !4
  br label %lean_dec.exit17

32:                                               ; preds = %27
  %.not.i = icmp eq i32 %28, 0
  br i1 %.not.i, label %lean_dec.exit17, label %33

33:                                               ; preds = %32
  tail call void @lean_dec_ref_cold(ptr noundef nonnull %2) #4
  br label %lean_dec.exit17

lean_dec.exit17:                                  ; preds = %33, %32, %30, %26
  %34 = ptrtoint ptr %1 to i64
  %35 = and i64 %34, 1
  %.not26 = icmp eq i64 %35, 0
  br i1 %.not26, label %36, label %lean_dec.exit

36:                                               ; preds = %lean_dec.exit17
  %37 = load i32, ptr %1, align 4, !tbaa !4
  %38 = icmp sgt i32 %37, 1
  br i1 %38, label %39, label %41, !prof !9

39:                                               ; preds = %36
  %40 = add nsw i32 %37, -1
  store i32 %40, ptr %1, align 4, !tbaa !4
  br label %lean_dec.exit

41:                                               ; preds = %36
  %.not.i19 = icmp eq i32 %37, 0
  br i1 %.not.i19, label %lean_dec.exit, label %42

42:                                               ; preds = %41
  tail call void @lean_dec_ref_cold(ptr noundef nonnull %1) #4
  br label %lean_dec.exit

43:                                               ; preds = %lean_inc.exit
  %44 = tail call ptr @lean_apply_3(ptr noundef %1, ptr noundef nonnull inttoptr (i64 1 to ptr), ptr noundef %2, ptr noundef nonnull %13) #4
  br label %lean_dec.exit

lean_dec.exit:                                    ; preds = %lean_dec.exit17, %39, %41, %42, %43
  %.0 = phi ptr [ %44, %43 ], [ %13, %42 ], [ %13, %41 ], [ %13, %39 ], [ %13, %lean_dec.exit17 ]
  ret ptr %.0
}